target datalayout = "e-m:e-p270:32:32-p271:32:32-p272:64:64-i64:64-i128:128-f80:128-n8:16:32:64-S128"
target triple = "x86_64-pc-linux-gnu"

%struct.evbuffer_chain = type { ptr, i64, i64, i64, i32, i32, ptr }

; Function Attrs: nounwind uwtable
define internal ptr @evbuffer_chain_new(i64 noundef %0) #0 {
  %2 = alloca ptr, align 8
  %3 = alloca i64, align 8
  %4 = alloca ptr, align 8
  %5 = alloca i64, align 8
  %6 = alloca i32, align 4
  store i64 %0, ptr %3, align 8
  call void @llvm.lifetime.start.p0(i64 8, ptr %4) #10
  call void @llvm.lifetime.start.p0(i64 8, ptr %5) #10
  %7 = load i64, ptr %3, align 8
  %8 = icmp ugt i64 %7, 9223372036854775759
  br i1 %8, label %9, label %10

9:                                                ; preds = %1
  store ptr null, ptr %2, align 8
  store i32 1, ptr %6, align 4
  br label %30

10:                                               ; preds = %1
  %11 = load i64, ptr %3, align 8
  %12 = add i64 %11, 48
  store i64 %12, ptr %5, align 8
  %13 = load i64, ptr %5, align 8
  %14 = call ptr @event_mm_malloc_(i64 noundef %13)
  store ptr %14, ptr %4, align 8
  %15 = icmp eq ptr %14, null
  br i1 %15, label %16, label %17

16:                                               ; preds = %10
  store ptr null, ptr %2, align 8
  store i32 1, ptr %6, align 4
  br label %30

17:                                               ; preds = %10
  %18 = load ptr, ptr %4, align 8
  call void @llvm.memset.p0.i64(ptr align 8 %18, i8 0, i64 48, i1 false)
  %19 = load i64, ptr %5, align 8
  %20 = sub i64 %19, 48
  %21 = load ptr, ptr %4, align 8
  %22 = getelementptr inbounds nuw %struct.evbuffer_chain, ptr %21, i32 0, i32 1
  store i64 %20, ptr %22, align 8
  %23 = load ptr, ptr %4, align 8
  %24 = getelementptr inbounds %struct.evbuffer_chain, ptr %23, i64 1
  %25 = load ptr, ptr %4, align 8
  %26 = getelementptr inbounds nuw %struct.evbuffer_chain, ptr %25, i32 0, i32 6
  store ptr %24, ptr %26, align 8
  %27 = load ptr, ptr %4, align 8
  %28 = getelementptr inbounds nuw %struct.evbuffer_chain, ptr %27, i32 0, i32 5
  store i32 1, ptr %28, align 4
  %29 = load ptr, ptr %4, align 8
  store ptr %29, ptr %2, align 8
  store i32 1, ptr %6, align 4
  br label %30

30:                                               ; preds = %17, %16, %9
  call void @llvm.lifetime.end.p0(i64 8, ptr %5) #10
  call void @llvm.lifetime.end.p0(i64 8, ptr %4) #10
  %31 = load ptr, ptr %2, align 8
  ret ptr %31
}

; Function Attrs: nounwind uwtable
define internal ptr @evbuffer_chain_new_membuf(i64 noundef %0) #0 {
  %2 = alloca ptr, align 8
  %3 = alloca i64, align 8
  %4 = alloca i64, align 8
  %5 = alloca i32, align 4
  store i64 %0, ptr %3, align 8
  call void @llvm.lifetime.start.p0(i64 8, ptr %4) #10
  %6 = load i64, ptr %3, align 8
  %7 = icmp ugt i64 %6, 9223372036854775759
  br i1 %7, label %8, label %9

8:                                                ; preds = %1
  store ptr null, ptr %2, align 8
  store i32 1, ptr %5, align 4
  br label %29

9:                                                ; preds = %1
  %10 = load i64, ptr %3, align 8
  %11 = add i64 %10, 48
  store i64 %11, ptr %3, align 8
  %12 = load i64, ptr %3, align 8
  %13 = icmp ult i64 %12, 4611686018427387903
  br i1 %13, label %14, label %23

14:                                               ; preds = %9
  store i64 1024, ptr %4, align 8
  br label %15

15:                                               ; preds = %19, %14
  %16 = load i64, ptr %4, align 8
  %17 = load i64, ptr %3, align 8
  %18 = icmp ult i64 %16, %17
  br i1 %18, label %19, label %22

19:                                               ; preds = %15
  %20 = load i64, ptr %4, align 8
  %21 = shl i64 %20, 1
  store i64 %21, ptr %4, align 8
  br label %15, !llvm.loop !25

22:                                               ; preds = %15
  br label %25

23:                                               ; preds = %9
  %24 = load i64, ptr %3, align 8
  store i64 %24, ptr %4, align 8
  br label %25

25:                                               ; preds = %23, %22
  %26 = load i64, ptr %4, align 8
  %27 = sub i64 %26, 48
  %28 = call ptr @evbuffer_chain_new(i64 noundef %27)
  store ptr %28, ptr %2, align 8
  store i32 1, ptr %5, align 4
  br label %29

29:                                               ; preds = %25, %8
  call void @llvm.lifetime.end.p0(i64 8, ptr %4) #10
  %30 = load ptr, ptr %2, align 8
  ret ptr %30
}