; Function Attrs: nounwind uwtable
define internal fastcc ptr @evbuffer_chain_new_membuf(i64 noundef %0) unnamed_addr #1 {
  %2 = icmp ugt i64 %0, 9223372036854775759
  br i1 %2, label %evbuffer_chain_new.exit, label %3

3:                                                ; preds = %1
  %4 = add nuw nsw i64 %0, 48
  %5 = icmp samesign ult i64 %0, 4611686018427387855
  br i1 %5, label %.preheader, label %.loopexit.thread

.preheader:                                       ; preds = %3, %.preheader
  %.0 = phi i64 [ %7, %.preheader ], [ 1024, %3 ]
  %6 = icmp ult i64 %.0, %4
  %7 = shl nuw nsw i64 %.0, 1
  br i1 %6, label %.preheader, label %.loopexit, !llvm.loop !9

.loopexit:                                        ; preds = %.preheader
  %8 = add nsw i64 %.0, -48
  %9 = icmp slt i64 %.0, 48
  br i1 %9, label %evbuffer_chain_new.exit, label %.loopexit.thread

.loopexit.thread:                                 ; preds = %3, %.loopexit
  %10 = phi i64 [ %8, %.loopexit ], [ %0, %3 ]
  %.113 = phi i64 [ %.0, %.loopexit ], [ %4, %3 ]
  %11 = tail call ptr @event_mm_malloc_(i64 noundef %.113) #16
  %12 = icmp eq ptr %11, null
  br i1 %12, label %evbuffer_chain_new.exit, label %13

13:                                               ; preds = %.loopexit.thread
  tail call void @llvm.memset.p0.i64(ptr noundef nonnull align 8 dereferenceable(48) %11, i8 0, i64 40, i1 false)
  %14 = getelementptr inbounds nuw i8, ptr %11, i64 8
  store i64 %10, ptr %14, align 8
  %15 = getelementptr inbounds nuw i8, ptr %11, i64 48
  %16 = getelementptr inbounds nuw i8, ptr %11, i64 40
  store ptr %15, ptr %16, align 8
  %17 = getelementptr inbounds nuw i8, ptr %11, i64 36
  store i32 1, ptr %17, align 4
  br label %evbuffer_chain_new.exit

evbuffer_chain_new.exit:                          ; preds = %13, %.loopexit.thread, %.loopexit, %1
  %.08 = phi ptr [ null, %1 ], [ %11, %13 ], [ null, %.loopexit ], [ null, %.loopexit.thread ]
  ret ptr %.08
}